target datalayout = "e-m:e-p270:32:32-p271:32:32-p272:64:64-i64:64-i128:128-f80:128-n8:16:32:64-S128"
target triple = "x86_64-pc-linux-gnu"

%"class.fmt::v11::detail::uint128_fallback" = type { i64, i64 }

@.str.1 = private unnamed_addr constant [1 x i8] zeroinitializer, align 1
@.str.9 = private unnamed_addr constant [18 x i8] c"k is out of range\00", align 1
@.str.10 = private unnamed_addr constant [24 x i8] c"shifting error detected\00", align 1
@.str.46 = private unnamed_addr constant [19 x i8] c"too large exponent\00", align 1

; Function Attrs: mustprogress nounwind uwtable
define linkonce_odr hidden void @_ZN3fmt3v116detail13ignore_unusedIJbA19_cEEEvDpRKT_(ptr noundef nonnull align 1 dereferenceable(1) %0, ptr noundef nonnull align 1 dereferenceable(19) %1) #3 comdat {
  %3 = alloca ptr, align 8
  %4 = alloca ptr, align 8
  store ptr %0, ptr %3, align 8, !tbaa !42
  store ptr %1, ptr %4, align 8, !tbaa !4
  ret void
}

; Function Attrs: noinline noreturn nounwind uwtable
define linkonce_odr hidden void @__clang_call_terminate(ptr noundef %0) #5 comdat {
  %2 = call ptr @__cxa_begin_catch(ptr %0) #26
  call void @_ZSt9terminatev() #27
  unreachable
}

; Function Attrs: mustprogress nounwind uwtable
define linkonce_odr hidden void @_ZN3fmt3v116detail13ignore_unusedIJbA1_cEEEvDpRKT_(ptr noundef nonnull align 1 dereferenceable(1) %0, ptr noundef nonnull align 1 dereferenceable(1) %1) #3 comdat {
  %3 = alloca ptr, align 8
  %4 = alloca ptr, align 8
  store ptr %0, ptr %3, align 8, !tbaa !42
  store ptr %1, ptr %4, align 8, !tbaa !4
  ret void
}

; Function Attrs: mustprogress nounwind uwtable
define linkonce_odr hidden void @_ZN3fmt3v116detail16uint128_fallbackC2Emm(ptr noundef nonnull align 8 dereferenceable(16) %0, i64 noundef %1, i64 noundef %2) unnamed_addr #3 comdat align 2 {
  %4 = alloca ptr, align 8
  %5 = alloca i64, align 8
  %6 = alloca i64, align 8
  store ptr %0, ptr %4, align 8, !tbaa !204
  store i64 %1, ptr %5, align 8, !tbaa !15
  store i64 %2, ptr %6, align 8, !tbaa !15
  %7 = load ptr, ptr %4, align 8
  %8 = getelementptr inbounds nuw %"class.fmt::v11::detail::uint128_fallback", ptr %7, i32 0, i32 0
  %9 = load i64, ptr %6, align 8, !tbaa !15
  store i64 %9, ptr %8, align 8, !tbaa !236
  %10 = getelementptr inbounds nuw %"class.fmt::v11::detail::uint128_fallback", ptr %7, i32 0, i32 1
  %11 = load i64, ptr %5, align 8, !tbaa !15
  store i64 %11, ptr %10, align 8, !tbaa !234
  ret void
}

; Function Attrs: mustprogress nounwind uwtable
define linkonce_odr hidden noundef nonnull align 8 dereferenceable(16) ptr @_ZN3fmt3v116detail16uint128_fallbackpLEm(ptr noundef nonnull align 8 dereferenceable(16) %0, i64 noundef %1) #3 comdat align 2 {
  %3 = alloca ptr, align 8
  %4 = alloca i64, align 8
  %5 = alloca i64, align 8
  store ptr %0, ptr %3, align 8, !tbaa !204
  store i64 %1, ptr %4, align 8, !tbaa !15
  %6 = load ptr, ptr %3, align 8
  call void @llvm.lifetime.start.p0(i64 8, ptr %5) #26
  %7 = getelementptr inbounds nuw %"class.fmt::v11::detail::uint128_fallback", ptr %6, i32 0, i32 0
  %8 = load i64, ptr %7, align 8, !tbaa !236
  %9 = load i64, ptr %4, align 8, !tbaa !15
  %10 = call { i64, i1 } @llvm.uadd.with.overflow.i64(i64 %8, i64 %9)
  %11 = extractvalue { i64, i1 } %10, 1
  %12 = extractvalue { i64, i1 } %10, 0
  %13 = call { i64, i1 } @llvm.uadd.with.overflow.i64(i64 %12, i64 0)
  %14 = extractvalue { i64, i1 } %13, 1
  %15 = extractvalue { i64, i1 } %13, 0
  %16 = or i1 %11, %14
  %17 = zext i1 %16 to i64
  store i64 %17, ptr %5, align 8
  %18 = getelementptr inbounds nuw %"class.fmt::v11::detail::uint128_fallback", ptr %6, i32 0, i32 0
  store i64 %15, ptr %18, align 8, !tbaa !236
  %19 = load i64, ptr %5, align 8, !tbaa !91
  %20 = getelementptr inbounds nuw %"class.fmt::v11::detail::uint128_fallback", ptr %6, i32 0, i32 1
  %21 = load i64, ptr %20, align 8, !tbaa !234
  %22 = add i64 %21, %19
  store i64 %22, ptr %20, align 8, !tbaa !234
  call void @llvm.lifetime.end.p0(i64 8, ptr %5) #26
  ret ptr %6
}

; Function Attrs: mustprogress nounwind uwtable
define linkonce_odr hidden noundef i64 @_ZNK3fmt3v116detail16uint128_fallback3lowEv(ptr noundef nonnull align 8 dereferenceable(16) %0) #3 comdat align 2 {
  %2 = alloca ptr, align 8
  store ptr %0, ptr %2, align 8, !tbaa !204
  %3 = load ptr, ptr %2, align 8
  %4 = getelementptr inbounds nuw %"class.fmt::v11::detail::uint128_fallback", ptr %3, i32 0, i32 0
  %5 = load i64, ptr %4, align 8, !tbaa !236
  ret i64 %5
}

; Function Attrs: inlinehint mustprogress nounwind uwtable
define linkonce_odr hidden { i64, i64 } @_ZN3fmt3v116detail7umul128Emm(i64 noundef %0, i64 noundef %1) #12 comdat personality ptr @__gxx_personality_v0 {
  %3 = alloca %"class.fmt::v11::detail::uint128_fallback", align 8
  %4 = alloca i64, align 8
  %5 = alloca i64, align 8
  %6 = alloca i128, align 16
  store i64 %0, ptr %4, align 8, !tbaa !15
  store i64 %1, ptr %5, align 8, !tbaa !15
  call void @llvm.lifetime.start.p0(i64 16, ptr %6) #26
  %7 = load i64, ptr %4, align 8, !tbaa !15
  %8 = zext i64 %7 to i128
  %9 = load i64, ptr %5, align 8, !tbaa !15
  %10 = zext i64 %9 to i128
  %11 = mul i128 %8, %10
  store i128 %11, ptr %6, align 16, !tbaa !134
  %12 = load i128, ptr %6, align 16, !tbaa !134
  %13 = lshr i128 %12, 64
  %14 = trunc i128 %13 to i64
  %15 = load i128, ptr %6, align 16, !tbaa !134
  %16 = trunc i128 %15 to i64
  invoke void @_ZN3fmt3v116detail16uint128_fallbackC2Emm(ptr noundef nonnull align 8 dereferenceable(16) %3, i64 noundef %14, i64 noundef %16)
          to label %17 unwind label %19

17:                                               ; preds = %2
  call void @llvm.lifetime.end.p0(i64 16, ptr %6) #26
  %18 = load { i64, i64 }, ptr %3, align 8
  ret { i64, i64 } %18

19:                                               ; preds = %2
  %20 = landingpad { ptr, i32 }
          catch ptr null
  %21 = extractvalue { ptr, i32 } %20, 0
  call void @__clang_call_terminate(ptr %21) #27
  unreachable
}

; Function Attrs: mustprogress nounwind uwtable
define linkonce_odr hidden noundef i64 @_ZNK3fmt3v116detail16uint128_fallback4highEv(ptr noundef nonnull align 8 dereferenceable(16) %0) #3 comdat align 2 {
  %2 = alloca ptr, align 8
  store ptr %0, ptr %2, align 8, !tbaa !204
  %3 = load ptr, ptr %2, align 8
  %4 = getelementptr inbounds nuw %"class.fmt::v11::detail::uint128_fallback", ptr %3, i32 0, i32 1
  %5 = load i64, ptr %4, align 8, !tbaa !234
  ret i64 %5
}

; Function Attrs: mustprogress nounwind uwtable
define linkonce_odr hidden void @_ZN3fmt3v116detail13ignore_unusedIJbA24_cEEEvDpRKT_(ptr noundef nonnull align 1 dereferenceable(1) %0, ptr noundef nonnull align 1 dereferenceable(24) %1) #3 comdat {
  %3 = alloca ptr, align 8
  %4 = alloca ptr, align 8
  store ptr %0, ptr %3, align 8, !tbaa !42
  store ptr %1, ptr %4, align 8, !tbaa !4
  ret void
}

; Function Attrs: inlinehint mustprogress nounwind uwtable
define linkonce_odr hidden noundef i32 @_ZN3fmt3v116detail9dragonbox16floor_log2_pow10Ei(i32 noundef %0) #12 comdat {
  %2 = alloca i32, align 4
  %3 = alloca i8, align 1
  store i32 %0, ptr %2, align 4, !tbaa !9
  call void @llvm.lifetime.start.p0(i64 1, ptr %3) #26
  %4 = load i32, ptr %2, align 4, !tbaa !9
  %5 = icmp sle i32 %4, 1233
  br i1 %5, label %6, label %9

6:                                                ; preds = %1
  %7 = load i32, ptr %2, align 4, !tbaa !9
  %8 = icmp sge i32 %7, -1233
  br label %9

9:                                                ; preds = %6, %1
  %10 = phi i1 [ false, %1 ], [ %8, %6 ]
  %11 = zext i1 %10 to i8
  store i8 %11, ptr %3, align 1, !tbaa !17
  call void @_ZN3fmt3v116detail13ignore_unusedIJbA19_cEEEvDpRKT_(ptr noundef nonnull align 1 dereferenceable(1) %3, ptr noundef nonnull align 1 dereferenceable(19) @.str.46)
  call void @llvm.lifetime.end.p0(i64 1, ptr %3) #26
  %12 = load i32, ptr %2, align 4, !tbaa !9
  %13 = mul nsw i32 %12, 1741647
  %14 = ashr i32 %13, 19
  ret i32 %14
}

; Function Attrs: mustprogress nounwind uwtable
define linkonce_odr hidden void @_ZN3fmt3v116detail13ignore_unusedIJbA18_cEEEvDpRKT_(ptr noundef nonnull align 1 dereferenceable(1) %0, ptr noundef nonnull align 1 dereferenceable(18) %1) #3 comdat {
  %3 = alloca ptr, align 8
  %4 = alloca ptr, align 8
  store ptr %0, ptr %3, align 8, !tbaa !42
  store ptr %1, ptr %4, align 8, !tbaa !4
  ret void
}

; Function Attrs: mustprogress nounwind uwtable
define linkonce_odr hidden { i64, i64 } @_ZN3fmt3v116detail9dragonbox14cache_accessorIdE16get_cached_powerEi(i32 noundef %0) #3 comdat align 2 personality ptr @__gxx_personality_v0 {
  %2 = alloca %"class.fmt::v11::detail::uint128_fallback", align 8
  %3 = alloca i32, align 4
  %4 = alloca i8, align 1
  %5 = alloca i32, align 4
  %6 = alloca i32, align 4
  %7 = alloca i32, align 4
  %8 = alloca %"class.fmt::v11::detail::uint128_fallback", align 8
  %9 = alloca i32, align 4
  %10 = alloca i32, align 4
  %11 = alloca i8, align 1
  %12 = alloca i64, align 8
  %13 = alloca %"class.fmt::v11::detail::uint128_fallback", align 8
  %14 = alloca %"class.fmt::v11::detail::uint128_fallback", align 8
  %15 = alloca i64, align 8
  %16 = alloca i64, align 8
  %17 = alloca %"class.fmt::v11::detail::uint128_fallback", align 8
  %18 = alloca i8, align 1
  store i32 %0, ptr %3, align 4, !tbaa !9
  call void @llvm.lifetime.start.p0(i64 1, ptr %4) #26
  %19 = load i32, ptr %3, align 4, !tbaa !9
  %20 = icmp sge i32 %19, -292
  br i1 %20, label %21, label %24

21:                                               ; preds = %1
  %22 = load i32, ptr %3, align 4, !tbaa !9
  %23 = icmp sle i32 %22, 341
  br label %24

24:                                               ; preds = %21, %1
  %25 = phi i1 [ false, %1 ], [ %23, %21 ]
  %26 = zext i1 %25 to i8
  store i8 %26, ptr %4, align 1, !tbaa !17
  invoke void @_ZN3fmt3v116detail13ignore_unusedIJbA18_cEEEvDpRKT_(ptr noundef nonnull align 1 dereferenceable(1) %4, ptr noundef nonnull align 1 dereferenceable(18) @.str.9)
          to label %27 unwind label %115

27:                                               ; preds = %24
  call void @llvm.lifetime.end.p0(i64 1, ptr %4) #26
  call void @llvm.lifetime.start.p0(i64 4, ptr %5) #26
  %28 = load i32, ptr %3, align 4, !tbaa !9
  %29 = sub nsw i32 %28, -292
  %30 = sdiv i32 %29, 27
  store i32 %30, ptr %5, align 4, !tbaa !9
  call void @llvm.lifetime.start.p0(i64 4, ptr %6) #26
  %31 = load i32, ptr %5, align 4, !tbaa !9
  %32 = mul nsw i32 %31, 27
  %33 = add nsw i32 %32, -292
  store i32 %33, ptr %6, align 4, !tbaa !9
  call void @llvm.lifetime.start.p0(i64 4, ptr %7) #26
  %34 = load i32, ptr %3, align 4, !tbaa !9
  %35 = load i32, ptr %6, align 4, !tbaa !9
  %36 = sub nsw i32 %34, %35
  store i32 %36, ptr %7, align 4, !tbaa !9
  call void @llvm.lifetime.start.p0(i64 16, ptr %8) #26
  %37 = load i32, ptr %5, align 4, !tbaa !9
  %38 = sext i32 %37 to i64
  %39 = getelementptr inbounds [24 x %"class.fmt::v11::detail::uint128_fallback"], ptr @_ZZN3fmt3v116detail9dragonbox14cache_accessorIdE16get_cached_powerEiE18pow10_significands, i64 0, i64 %38
  call void @llvm.memcpy.p0.p0.i64(ptr align 8 %8, ptr align 16 %39, i64 16, i1 false), !tbaa.struct !100
  %40 = load i32, ptr %7, align 4, !tbaa !9
  %41 = icmp eq i32 %40, 0
  br i1 %41, label %42, label %43

42:                                               ; preds = %27
  call void @llvm.memcpy.p0.p0.i64(ptr align 8 %2, ptr align 8 %8, i64 16, i1 false), !tbaa.struct !100
  store i32 1, ptr %9, align 4
  br label %113

43:                                               ; preds = %27
  call void @llvm.lifetime.start.p0(i64 4, ptr %10) #26
  %44 = load i32, ptr %6, align 4, !tbaa !9
  %45 = load i32, ptr %7, align 4, !tbaa !9
  %46 = add nsw i32 %44, %45
  %47 = call noundef i32 @_ZN3fmt3v116detail9dragonbox16floor_log2_pow10Ei(i32 noundef %46) #26
  %48 = load i32, ptr %6, align 4, !tbaa !9
  %49 = call noundef i32 @_ZN3fmt3v116detail9dragonbox16floor_log2_pow10Ei(i32 noundef %48) #26
  %50 = sub nsw i32 %47, %49
  %51 = load i32, ptr %7, align 4, !tbaa !9
  %52 = sub nsw i32 %50, %51
  store i32 %52, ptr %10, align 4, !tbaa !9
  call void @llvm.lifetime.start.p0(i64 1, ptr %11) #26
  %53 = load i32, ptr %10, align 4, !tbaa !9
  %54 = icmp sgt i32 %53, 0
  br i1 %54, label %55, label %58

55:                                               ; preds = %43
  %56 = load i32, ptr %10, align 4, !tbaa !9
  %57 = icmp slt i32 %56, 64
  br label %58

58:                                               ; preds = %55, %43
  %59 = phi i1 [ false, %43 ], [ %57, %55 ]
  %60 = zext i1 %59 to i8
  store i8 %60, ptr %11, align 1, !tbaa !17
  invoke void @_ZN3fmt3v116detail13ignore_unusedIJbA24_cEEEvDpRKT_(ptr noundef nonnull align 1 dereferenceable(1) %11, ptr noundef nonnull align 1 dereferenceable(24) @.str.10)
          to label %61 unwind label %115

61:                                               ; preds = %58
  call void @llvm.lifetime.end.p0(i64 1, ptr %11) #26
  call void @llvm.lifetime.start.p0(i64 8, ptr %12) #26
  %62 = load i32, ptr %7, align 4, !tbaa !9
  %63 = sext i32 %62 to i64
  %64 = getelementptr inbounds [27 x i64], ptr @_ZZN3fmt3v116detail9dragonbox14cache_accessorIdE16get_cached_powerEiE14powers_of_5_64, i64 0, i64 %63
  %65 = load i64, ptr %64, align 8, !tbaa !15
  store i64 %65, ptr %12, align 8, !tbaa !15
  call void @llvm.lifetime.start.p0(i64 16, ptr %13) #26
  %66 = call noundef i64 @_ZNK3fmt3v116detail16uint128_fallback4highEv(ptr noundef nonnull align 8 dereferenceable(16) %8) #26
  %67 = load i64, ptr %12, align 8, !tbaa !15
  %68 = call { i64, i64 } @_ZN3fmt3v116detail7umul128Emm(i64 noundef %66, i64 noundef %67) #26
  %69 = getelementptr inbounds nuw { i64, i64 }, ptr %13, i32 0, i32 0
  %70 = extractvalue { i64, i64 } %68, 0
  store i64 %70, ptr %69, align 8
  %71 = getelementptr inbounds nuw { i64, i64 }, ptr %13, i32 0, i32 1
  %72 = extractvalue { i64, i64 } %68, 1
  store i64 %72, ptr %71, align 8
  call void @llvm.lifetime.start.p0(i64 16, ptr %14) #26
  %73 = call noundef i64 @_ZNK3fmt3v116detail16uint128_fallback3lowEv(ptr noundef nonnull align 8 dereferenceable(16) %8) #26
  %74 = load i64, ptr %12, align 8, !tbaa !15
  %75 = call { i64, i64 } @_ZN3fmt3v116detail7umul128Emm(i64 noundef %73, i64 noundef %74) #26
  %76 = getelementptr inbounds nuw { i64, i64 }, ptr %14, i32 0, i32 0
  %77 = extractvalue { i64, i64 } %75, 0
  store i64 %77, ptr %76, align 8
  %78 = getelementptr inbounds nuw { i64, i64 }, ptr %14, i32 0, i32 1
  %79 = extractvalue { i64, i64 } %75, 1
  store i64 %79, ptr %78, align 8
  %80 = call noundef i64 @_ZNK3fmt3v116detail16uint128_fallback4highEv(ptr noundef nonnull align 8 dereferenceable(16) %14) #26
  %81 = call noundef nonnull align 8 dereferenceable(16) ptr @_ZN3fmt3v116detail16uint128_fallbackpLEm(ptr noundef nonnull align 8 dereferenceable(16) %13, i64 noundef %80) #26
  call void @llvm.lifetime.start.p0(i64 8, ptr %15) #26
  %82 = call noundef i64 @_ZNK3fmt3v116detail16uint128_fallback4highEv(ptr noundef nonnull align 8 dereferenceable(16) %13) #26
  %83 = load i32, ptr %10, align 4, !tbaa !9
  %84 = sub nsw i32 64, %83
  %85 = zext i32 %84 to i64
  %86 = shl i64 %82, %85
  store i64 %86, ptr %15, align 8, !tbaa !15
  call void @llvm.lifetime.start.p0(i64 8, ptr %16) #26
  %87 = call noundef i64 @_ZNK3fmt3v116detail16uint128_fallback3lowEv(ptr noundef nonnull align 8 dereferenceable(16) %13) #26
  %88 = load i32, ptr %10, align 4, !tbaa !9
  %89 = sub nsw i32 64, %88
  %90 = zext i32 %89 to i64
  %91 = shl i64 %87, %90
  store i64 %91, ptr %16, align 8, !tbaa !15
  call void @llvm.lifetime.start.p0(i64 16, ptr %17) #26
  %92 = call noundef i64 @_ZNK3fmt3v116detail16uint128_fallback3lowEv(ptr noundef nonnull align 8 dereferenceable(16) %13) #26
  %93 = load i32, ptr %10, align 4, !tbaa !9
  %94 = zext i32 %93 to i64
  %95 = lshr i64 %92, %94
  %96 = load i64, ptr %15, align 8, !tbaa !15
  %97 = or i64 %95, %96
  %98 = call noundef i64 @_ZNK3fmt3v116detail16uint128_fallback3lowEv(ptr noundef nonnull align 8 dereferenceable(16) %14) #26
  %99 = load i32, ptr %10, align 4, !tbaa !9
  %100 = zext i32 %99 to i64
  %101 = lshr i64 %98, %100
  %102 = load i64, ptr %16, align 8, !tbaa !15
  %103 = or i64 %101, %102
  invoke void @_ZN3fmt3v116detail16uint128_fallbackC2Emm(ptr noundef nonnull align 8 dereferenceable(16) %17, i64 noundef %97, i64 noundef %103)
          to label %104 unwind label %115

104:                                              ; preds = %61
  call void @llvm.memcpy.p0.p0.i64(ptr align 8 %13, ptr align 8 %17, i64 16, i1 false), !tbaa.struct !100
  call void @llvm.lifetime.end.p0(i64 16, ptr %17) #26
  call void @llvm.lifetime.start.p0(i64 1, ptr %18) #26
  %105 = call noundef i64 @_ZNK3fmt3v116detail16uint128_fallback3lowEv(ptr noundef nonnull align 8 dereferenceable(16) %13) #26
  %106 = add i64 %105, 1
  %107 = icmp ne i64 %106, 0
  %108 = zext i1 %107 to i8
  store i8 %108, ptr %18, align 1, !tbaa !17
  call void @_ZN3fmt3v116detail13ignore_unusedIJbA1_cEEEvDpRKT_(ptr noundef nonnull align 1 dereferenceable(1) %18, ptr noundef nonnull align 1 dereferenceable(1) @.str.1)
  call void @llvm.lifetime.end.p0(i64 1, ptr %18) #26
  %109 = call noundef i64 @_ZNK3fmt3v116detail16uint128_fallback4highEv(ptr noundef nonnull align 8 dereferenceable(16) %13) #26
  %110 = call noundef i64 @_ZNK3fmt3v116detail16uint128_fallback3lowEv(ptr noundef nonnull align 8 dereferenceable(16) %13) #26
  %111 = add i64 %110, 1
  invoke void @_ZN3fmt3v116detail16uint128_fallbackC2Emm(ptr noundef nonnull align 8 dereferenceable(16) %2, i64 noundef %109, i64 noundef %111)
          to label %112 unwind label %115

112:                                              ; preds = %104
  store i32 1, ptr %9, align 4
  call void @llvm.lifetime.end.p0(i64 8, ptr %16) #26
  call void @llvm.lifetime.end.p0(i64 8, ptr %15) #26
  call void @llvm.lifetime.end.p0(i64 16, ptr %14) #26
  call void @llvm.lifetime.end.p0(i64 16, ptr %13) #26
  call void @llvm.lifetime.end.p0(i64 8, ptr %12) #26
  call void @llvm.lifetime.end.p0(i64 4, ptr %10) #26
  br label %113

113:                                              ; preds = %112, %42
  call void @llvm.lifetime.end.p0(i64 16, ptr %8) #26
  call void @llvm.lifetime.end.p0(i64 4, ptr %7) #26
  call void @llvm.lifetime.end.p0(i64 4, ptr %6) #26
  call void @llvm.lifetime.end.p0(i64 4, ptr %5) #26
  %114 = load { i64, i64 }, ptr %2, align 8
  ret { i64, i64 } %114

115:                                              ; preds = %104, %61, %58, %24
  %116 = landingpad { ptr, i32 }
          catch ptr null
  %117 = extractvalue { ptr, i32 } %116, 0
  call void @__clang_call_terminate(ptr %117) #27
  unreachable
}

; Function Attrs: mustprogress nounwind uwtable
define hidden { i64, i64 } @_ZN3fmt3v116detail9dragonbox16get_cached_powerEi(i32 noundef %0) #3 {
  %2 = alloca %"class.fmt::v11::detail::uint128_fallback", align 8
  %3 = alloca i32, align 4
  store i32 %0, ptr %3, align 4, !tbaa !9
  %4 = load i32, ptr %3, align 4, !tbaa !9
  %5 = call { i64, i64 } @_ZN3fmt3v116detail9dragonbox14cache_accessorIdE16get_cached_powerEi(i32 noundef %4) #26
  %6 = getelementptr inbounds nuw { i64, i64 }, ptr %2, i32 0, i32 0
  %7 = extractvalue { i64, i64 } %5, 0
  store i64 %7, ptr %6, align 8
  %8 = getelementptr inbounds nuw { i64, i64 }, ptr %2, i32 0, i32 1
  %9 = extractvalue { i64, i64 } %5, 1
  store i64 %9, ptr %8, align 8
  %10 = load { i64, i64 }, ptr %2, align 8
  ret { i64, i64 } %10
}